target datalayout = "e-m:e-p270:32:32-p271:32:32-p272:64:64-i64:64-i128:128-f80:128-n8:16:32:64-S128"
target triple = "x86_64-pc-linux-gnu"

%class.SecPassword = type <{ %"class.std::vector", i8, [7 x i8] }>
%"class.std::vector" = type { %"struct.std::_Vector_base" }
%"struct.std::_Vector_base" = type { %"struct.std::_Vector_base<wchar_t, std::allocator<wchar_t>>::_Vector_impl" }
%"struct.std::_Vector_base<wchar_t, std::allocator<wchar_t>>::_Vector_impl" = type { %"struct.std::_Vector_base<wchar_t, std::allocator<wchar_t>>::_Vector_impl_data" }
%"struct.std::_Vector_base<wchar_t, std::allocator<wchar_t>>::_Vector_impl_data" = type { ptr, ptr, ptr }

; Function Attrs: mustprogress nounwind uwtable
define void @_Z11SecHideDataPvmbb(ptr noundef %0, i64 noundef %1, i1 noundef zeroext %2, i1 noundef zeroext %3) #2 {
  %5 = alloca ptr, align 8
  %6 = alloca i64, align 8
  %7 = alloca i8, align 1
  %8 = alloca i8, align 1
  %9 = alloca i32, align 4
  %10 = alloca i64, align 8
  store ptr %0, ptr %5, align 8, !tbaa !27
  store i64 %1, ptr %6, align 8, !tbaa !12
  %11 = zext i1 %2 to i8
  store i8 %11, ptr %7, align 1, !tbaa !33
  %12 = zext i1 %3 to i8
  store i8 %12, ptr %8, align 1, !tbaa !33
  call void @llvm.lifetime.start.p0(i64 4, ptr %9) #13
  %13 = call i32 @getpid() #13
  store i32 %13, ptr %9, align 4, !tbaa !36
  call void @llvm.lifetime.start.p0(i64 8, ptr %10) #13
  store i64 0, ptr %10, align 8, !tbaa !12
  br label %14

14:                                               ; preds = %32, %4
  %15 = load i64, ptr %10, align 8, !tbaa !12
  %16 = load i64, ptr %6, align 8, !tbaa !12
  %17 = icmp ult i64 %15, %16
  br i1 %17, label %19, label %18

18:                                               ; preds = %14
  call void @llvm.lifetime.end.p0(i64 8, ptr %10) #13
  br label %35

19:                                               ; preds = %14
  %20 = load i32, ptr %9, align 4, !tbaa !36
  %21 = zext i32 %20 to i64
  %22 = load i64, ptr %10, align 8, !tbaa !12
  %23 = add i64 %21, %22
  %24 = add i64 %23, 75
  %25 = load ptr, ptr %5, align 8, !tbaa !27
  %26 = load i64, ptr %10, align 8, !tbaa !12
  %27 = getelementptr inbounds nuw i8, ptr %25, i64 %26
  %28 = load i8, ptr %27, align 1, !tbaa !30
  %29 = zext i8 %28 to i64
  %30 = xor i64 %29, %24
  %31 = trunc i64 %30 to i8
  store i8 %31, ptr %27, align 1, !tbaa !30
  br label %32

32:                                               ; preds = %19
  %33 = load i64, ptr %10, align 8, !tbaa !12
  %34 = add i64 %33, 1
  store i64 %34, ptr %10, align 8, !tbaa !12
  br label %14, !llvm.loop !38

35:                                               ; preds = %18
  call void @llvm.lifetime.end.p0(i64 4, ptr %9) #13
  ret void
}

; Function Attrs: mustprogress uwtable
define void @_ZN11SecPassword7ProcessEPKwmPwmb(ptr noundef nonnull align 8 dereferenceable(25) %0, ptr noundef %1, i64 noundef %2, ptr noundef %3, i64 noundef %4, i1 noundef zeroext %5) #0 align 2 {
  %7 = alloca ptr, align 8
  %8 = alloca ptr, align 8
  %9 = alloca i64, align 8
  %10 = alloca ptr, align 8
  %11 = alloca i64, align 8
  %12 = alloca i8, align 1
  store ptr %0, ptr %7, align 8, !tbaa !3
  store ptr %1, ptr %8, align 8, !tbaa !14
  store i64 %2, ptr %9, align 8, !tbaa !12
  store ptr %3, ptr %10, align 8, !tbaa !14
  store i64 %4, ptr %11, align 8, !tbaa !12
  %13 = zext i1 %5 to i8
  store i8 %13, ptr %12, align 1, !tbaa !33
  %14 = load ptr, ptr %10, align 8, !tbaa !14
  %15 = load ptr, ptr %8, align 8, !tbaa !14
  %16 = load i64, ptr %9, align 8, !tbaa !12
  %17 = load i64, ptr %11, align 8, !tbaa !12
  %18 = icmp ult i64 %16, %17
  br i1 %18, label %19, label %21

19:                                               ; preds = %6
  %20 = load i64, ptr %9, align 8, !tbaa !12
  br label %23

21:                                               ; preds = %6
  %22 = load i64, ptr %11, align 8, !tbaa !12
  br label %23

23:                                               ; preds = %21, %19
  %24 = phi i64 [ %20, %19 ], [ %22, %21 ]
  %25 = mul i64 %24, 4
  call void @llvm.memcpy.p0.p0.i64(ptr align 4 %14, ptr align 4 %15, i64 %25, i1 false)
  %26 = load ptr, ptr %10, align 8, !tbaa !14
  %27 = load i64, ptr %11, align 8, !tbaa !12
  %28 = mul i64 %27, 4
  %29 = load i8, ptr %12, align 1, !tbaa !33, !range !34, !noundef !35
  %30 = trunc i8 %29 to i1
  call void @_Z11SecHideDataPvmbb(ptr noundef %26, i64 noundef %28, i1 noundef zeroext %30, i1 noundef zeroext false)
  ret void
}

; Function Attrs: mustprogress nounwind uwtable
define linkonce_odr noundef i64 @_ZNKSt6vectorIwSaIwEE4sizeEv(ptr noundef nonnull align 8 dereferenceable(24) %0) #2 comdat align 2 {
  %2 = alloca ptr, align 8
  store ptr %0, ptr %2, align 8, !tbaa !10
  %3 = load ptr, ptr %2, align 8
  %4 = getelementptr inbounds nuw %"struct.std::_Vector_base", ptr %3, i32 0, i32 0
  %5 = getelementptr inbounds nuw %"struct.std::_Vector_base<wchar_t, std::allocator<wchar_t>>::_Vector_impl_data", ptr %4, i32 0, i32 1
  %6 = load ptr, ptr %5, align 8, !tbaa !26
  %7 = getelementptr inbounds nuw %"struct.std::_Vector_base", ptr %3, i32 0, i32 0
  %8 = getelementptr inbounds nuw %"struct.std::_Vector_base<wchar_t, std::allocator<wchar_t>>::_Vector_impl_data", ptr %7, i32 0, i32 0
  %9 = load ptr, ptr %8, align 8, !tbaa !25
  %10 = ptrtoint ptr %6 to i64
  %11 = ptrtoint ptr %9 to i64
  %12 = sub i64 %10, %11
  %13 = sdiv exact i64 %12, 4
  ret i64 %13
}

; Function Attrs: mustprogress nounwind uwtable
define linkonce_odr noundef nonnull align 4 dereferenceable(4) ptr @_ZNSt6vectorIwSaIwEEixEm(ptr noundef nonnull align 8 dereferenceable(24) %0, i64 noundef %1) #2 comdat align 2 {
  %3 = alloca ptr, align 8
  %4 = alloca i64, align 8
  store ptr %0, ptr %3, align 8, !tbaa !10
  store i64 %1, ptr %4, align 8, !tbaa !12
  %5 = load ptr, ptr %3, align 8
  %6 = getelementptr inbounds nuw %"struct.std::_Vector_base", ptr %5, i32 0, i32 0
  %7 = getelementptr inbounds nuw %"struct.std::_Vector_base<wchar_t, std::allocator<wchar_t>>::_Vector_impl_data", ptr %6, i32 0, i32 0
  %8 = load ptr, ptr %7, align 8, !tbaa !25
  %9 = load i64, ptr %4, align 8, !tbaa !12
  %10 = getelementptr inbounds nuw i32, ptr %8, i64 %9
  ret ptr %10
}

; Function Attrs: mustprogress nounwind uwtable
define void @_Z9cleandataPvm(ptr noundef %0, i64 noundef %1) #2 {
  %3 = alloca ptr, align 8
  %4 = alloca i64, align 8
  %5 = alloca ptr, align 8
  %6 = alloca i64, align 8
  store ptr %0, ptr %3, align 8, !tbaa !27
  store i64 %1, ptr %4, align 8, !tbaa !12
  %7 = load ptr, ptr %3, align 8, !tbaa !27
  %8 = icmp eq ptr %7, null
  br i1 %8, label %12, label %9

9:                                                ; preds = %2
  %10 = load i64, ptr %4, align 8, !tbaa !12
  %11 = icmp eq i64 %10, 0
  br i1 %11, label %12, label %13

12:                                               ; preds = %9, %2
  br label %28

13:                                               ; preds = %9
  call void @llvm.lifetime.start.p0(i64 8, ptr %5) #13
  %14 = load ptr, ptr %3, align 8, !tbaa !27
  store ptr %14, ptr %5, align 8, !tbaa !28
  call void @llvm.lifetime.start.p0(i64 8, ptr %6) #13
  store i64 0, ptr %6, align 8, !tbaa !12
  br label %15

15:                                               ; preds = %24, %13
  %16 = load i64, ptr %6, align 8, !tbaa !12
  %17 = load i64, ptr %4, align 8, !tbaa !12
  %18 = icmp ult i64 %16, %17
  br i1 %18, label %20, label %19

19:                                               ; preds = %15
  call void @llvm.lifetime.end.p0(i64 8, ptr %6) #13
  br label %27

20:                                               ; preds = %15
  %21 = load ptr, ptr %5, align 8, !tbaa !28
  %22 = load i64, ptr %6, align 8, !tbaa !12
  %23 = getelementptr inbounds nuw i8, ptr %21, i64 %22
  store volatile i8 0, ptr %23, align 1, !tbaa !30
  br label %24

24:                                               ; preds = %20
  %25 = load i64, ptr %6, align 8, !tbaa !12
  %26 = add i64 %25, 1
  store i64 %26, ptr %6, align 8, !tbaa !12
  br label %15, !llvm.loop !31

27:                                               ; preds = %19
  call void @llvm.lifetime.end.p0(i64 8, ptr %5) #13
  br label %28

28:                                               ; preds = %27, %12
  ret void
}

; Function Attrs: mustprogress uwtable
define void @_ZN11SecPassword3GetEPwm(ptr noundef nonnull align 8 dereferenceable(25) %0, ptr noundef %1, i64 noundef %2) #0 align 2 {
  %4 = alloca ptr, align 8
  %5 = alloca ptr, align 8
  %6 = alloca i64, align 8
  store ptr %0, ptr %4, align 8, !tbaa !3
  store ptr %1, ptr %5, align 8, !tbaa !14
  store i64 %2, ptr %6, align 8, !tbaa !12
  %7 = load ptr, ptr %4, align 8
  %8 = getelementptr inbounds nuw %class.SecPassword, ptr %7, i32 0, i32 1
  %9 = load i8, ptr %8, align 8, !tbaa !18, !range !34, !noundef !35
  %10 = trunc i8 %9 to i1
  br i1 %10, label %11, label %22

11:                                               ; preds = %3
  %12 = getelementptr inbounds nuw %class.SecPassword, ptr %7, i32 0, i32 0
  %13 = call noundef nonnull align 4 dereferenceable(4) ptr @_ZNSt6vectorIwSaIwEEixEm(ptr noundef nonnull align 8 dereferenceable(24) %12, i64 noundef 0) #13
  %14 = getelementptr inbounds nuw %class.SecPassword, ptr %7, i32 0, i32 0
  %15 = call noundef i64 @_ZNKSt6vectorIwSaIwEE4sizeEv(ptr noundef nonnull align 8 dereferenceable(24) %14) #13
  %16 = load ptr, ptr %5, align 8, !tbaa !14
  %17 = load i64, ptr %6, align 8, !tbaa !12
  call void @_ZN11SecPassword7ProcessEPKwmPwmb(ptr noundef nonnull align 8 dereferenceable(25) %7, ptr noundef %13, i64 noundef %15, ptr noundef %16, i64 noundef %17, i1 noundef zeroext false)
  %18 = load ptr, ptr %5, align 8, !tbaa !14
  %19 = load i64, ptr %6, align 8, !tbaa !12
  %20 = sub i64 %19, 1
  %21 = getelementptr inbounds nuw i32, ptr %18, i64 %20
  store i32 0, ptr %21, align 4, !tbaa !16
  br label %24

22:                                               ; preds = %3
  %23 = load ptr, ptr %5, align 8, !tbaa !14
  store i32 0, ptr %23, align 4, !tbaa !16
  br label %24

24:                                               ; preds = %22, %11
  ret void
}

; Function Attrs: mustprogress uwtable
define noundef zeroext i1 @_ZN11SecPasswordeqERS_(ptr noundef nonnull align 8 dereferenceable(25) %0, ptr noundef nonnull align 8 dereferenceable(25) %1) #0 align 2 {
  %3 = alloca ptr, align 8
  %4 = alloca ptr, align 8
  %5 = alloca [512 x i32], align 16
  %6 = alloca [512 x i32], align 16
  %7 = alloca i8, align 1
  store ptr %0, ptr %3, align 8, !tbaa !3
  store ptr %1, ptr %4, align 8, !tbaa !3
  %8 = load ptr, ptr %3, align 8
  call void @llvm.lifetime.start.p0(i64 2048, ptr %5) #13
  call void @llvm.lifetime.start.p0(i64 2048, ptr %6) #13
  %9 = getelementptr inbounds [512 x i32], ptr %5, i64 0, i64 0
  call void @_ZN11SecPassword3GetEPwm(ptr noundef nonnull align 8 dereferenceable(25) %8, ptr noundef %9, i64 noundef 512)
  %10 = load ptr, ptr %4, align 8, !tbaa !3
  %11 = getelementptr inbounds [512 x i32], ptr %6, i64 0, i64 0
  call void @_ZN11SecPassword3GetEPwm(ptr noundef nonnull align 8 dereferenceable(25) %10, ptr noundef %11, i64 noundef 512)
  call void @llvm.lifetime.start.p0(i64 1, ptr %7) #13
  %12 = getelementptr inbounds [512 x i32], ptr %5, i64 0, i64 0
  %13 = getelementptr inbounds [512 x i32], ptr %6, i64 0, i64 0
  %14 = call i32 @wcscmp(ptr noundef %12, ptr noundef %13) #14
  %15 = icmp eq i32 %14, 0
  %16 = zext i1 %15 to i8
  store i8 %16, ptr %7, align 1, !tbaa !33
  %17 = getelementptr inbounds [512 x i32], ptr %5, i64 0, i64 0
  call void @_Z9cleandataPvm(ptr noundef %17, i64 noundef 2048)
  %18 = getelementptr inbounds [512 x i32], ptr %6, i64 0, i64 0
  call void @_Z9cleandataPvm(ptr noundef %18, i64 noundef 2048)
  %19 = load i8, ptr %7, align 1, !tbaa !33, !range !34, !noundef !35
  %20 = trunc i8 %19 to i1
  call void @llvm.lifetime.end.p0(i64 1, ptr %7) #13
  call void @llvm.lifetime.end.p0(i64 2048, ptr %6) #13
  call void @llvm.lifetime.end.p0(i64 2048, ptr %5) #13
  ret i1 %20
}