; Function Attrs: mustprogress nounwind uwtable
define noundef zeroext i1 @_ZN11SecPasswordeqERS_(ptr noundef nonnull readonly align 8 captures(none) dereferenceable(25) %0, ptr noundef nonnull readonly align 8 captures(none) dereferenceable(25) %1) local_unnamed_addr #2 align 2 {
  %3 = alloca [512 x i32], align 16
  %4 = alloca [512 x i32], align 16
  call void @llvm.lifetime.start.p0(i64 2048, ptr nonnull %3) #15
  call void @llvm.lifetime.start.p0(i64 2048, ptr nonnull %4) #15
  %5 = getelementptr inbounds nuw i8, ptr %0, i64 24
  %6 = load i8, ptr %5, align 8, !tbaa !11, !range !23, !noundef !24
  %7 = trunc nuw i8 %6 to i1
  br i1 %7, label %8, label %29

8:                                                ; preds = %2
  %9 = load ptr, ptr %0, align 8, !tbaa !3
  %10 = getelementptr inbounds nuw i8, ptr %0, i64 8
  %11 = load ptr, ptr %10, align 8, !tbaa !10
  %12 = ptrtoint ptr %11 to i64
  %13 = ptrtoint ptr %9 to i64
  %14 = sub i64 %12, %13
  %15 = ashr exact i64 %14, 2
  %16 = tail call i64 @llvm.umin.i64(i64 %15, i64 512)
  %17 = shl nuw nsw i64 %16, 2
  call void @llvm.memcpy.p0.p0.i64(ptr nonnull align 16 %3, ptr nonnull readonly align 4 %9, i64 %17, i1 false)
  %18 = tail call i32 @getpid() #15
  %19 = zext i32 %18 to i64
  br label %20

20:                                               ; preds = %20, %8
  %.06.i.i.i = phi i64 [ 0, %8 ], [ %27, %20 ]
  %21 = add nuw nsw i64 %.06.i.i.i, %19
  %22 = getelementptr inbounds nuw i8, ptr %3, i64 %.06.i.i.i
  %23 = load i8, ptr %22, align 1, !tbaa !17
  %24 = trunc i64 %21 to i8
  %25 = add i8 %24, 75
  %26 = xor i8 %25, %23
  store i8 %26, ptr %22, align 1, !tbaa !17
  %27 = add nuw nsw i64 %.06.i.i.i, 1
  %exitcond.not.i.i.i = icmp eq i64 %27, 2048
  br i1 %exitcond.not.i.i.i, label %_ZN11SecPassword7ProcessEPKwmPwmb.exit.i, label %20, !llvm.loop !22

_ZN11SecPassword7ProcessEPKwmPwmb.exit.i:         ; preds = %20
  %28 = getelementptr inbounds nuw i8, ptr %3, i64 2044
  store i32 0, ptr %28, align 4, !tbaa !20
  br label %_ZN11SecPassword3GetEPwm.exit

29:                                               ; preds = %2
  store i32 0, ptr %3, align 16, !tbaa !20
  br label %_ZN11SecPassword3GetEPwm.exit

_ZN11SecPassword3GetEPwm.exit:                    ; preds = %_ZN11SecPassword7ProcessEPKwmPwmb.exit.i, %29
  %30 = getelementptr inbounds nuw i8, ptr %1, i64 24
  %31 = load i8, ptr %30, align 8, !tbaa !11, !range !23, !noundef !24
  %32 = trunc nuw i8 %31 to i1
  br i1 %32, label %33, label %54

33:                                               ; preds = %_ZN11SecPassword3GetEPwm.exit
  %34 = load ptr, ptr %1, align 8, !tbaa !3
  %35 = getelementptr inbounds nuw i8, ptr %1, i64 8
  %36 = load ptr, ptr %35, align 8, !tbaa !10
  %37 = ptrtoint ptr %36 to i64
  %38 = ptrtoint ptr %34 to i64
  %39 = sub i64 %37, %38
  %40 = ashr exact i64 %39, 2
  %41 = tail call i64 @llvm.umin.i64(i64 %40, i64 512)
  %42 = shl nuw nsw i64 %41, 2
  call void @llvm.memcpy.p0.p0.i64(ptr nonnull align 16 %4, ptr nonnull readonly align 4 %34, i64 %42, i1 false)
  %43 = tail call i32 @getpid() #15
  %44 = zext i32 %43 to i64
  br label %45

45:                                               ; preds = %45, %33
  %.06.i.i.i2 = phi i64 [ 0, %33 ], [ %52, %45 ]
  %46 = add nuw nsw i64 %.06.i.i.i2, %44
  %47 = getelementptr inbounds nuw i8, ptr %4, i64 %.06.i.i.i2
  %48 = load i8, ptr %47, align 1, !tbaa !17
  %49 = trunc i64 %46 to i8
  %50 = add i8 %49, 75
  %51 = xor i8 %50, %48
  store i8 %51, ptr %47, align 1, !tbaa !17
  %52 = add nuw nsw i64 %.06.i.i.i2, 1
  %exitcond.not.i.i.i3 = icmp eq i64 %52, 2048
  br i1 %exitcond.not.i.i.i3, label %_ZN11SecPassword7ProcessEPKwmPwmb.exit.i4, label %45, !llvm.loop !22

_ZN11SecPassword7ProcessEPKwmPwmb.exit.i4:        ; preds = %45
  %53 = getelementptr inbounds nuw i8, ptr %4, i64 2044
  store i32 0, ptr %53, align 4, !tbaa !20
  br label %_ZN11SecPassword3GetEPwm.exit5

54:                                               ; preds = %_ZN11SecPassword3GetEPwm.exit
  store i32 0, ptr %4, align 16, !tbaa !20
  br label %_ZN11SecPassword3GetEPwm.exit5

_ZN11SecPassword3GetEPwm.exit5:                   ; preds = %_ZN11SecPassword7ProcessEPKwmPwmb.exit.i4, %54
  %55 = call i32 @wcscmp(ptr noundef nonnull %3, ptr noundef nonnull %4) #14
  br label %.preheader.i

.preheader.i:                                     ; preds = %_ZN11SecPassword3GetEPwm.exit5, %.preheader.i
  %.010.i = phi i64 [ %57, %.preheader.i ], [ 0, %_ZN11SecPassword3GetEPwm.exit5 ]
  %56 = getelementptr inbounds nuw i8, ptr %3, i64 %.010.i
  store volatile i8 0, ptr %56, align 1, !tbaa !17
  %57 = add nuw nsw i64 %.010.i, 1
  %exitcond.not.i = icmp eq i64 %57, 2048
  br i1 %exitcond.not.i, label %.preheader.i6, label %.preheader.i, !llvm.loop !18

.preheader.i6:                                    ; preds = %.preheader.i, %.preheader.i6
  %.010.i7 = phi i64 [ %59, %.preheader.i6 ], [ 0, %.preheader.i ]
  %58 = getelementptr inbounds nuw i8, ptr %4, i64 %.010.i7
  store volatile i8 0, ptr %58, align 1, !tbaa !17
  %59 = add nuw nsw i64 %.010.i7, 1
  %exitcond.not.i8 = icmp eq i64 %59, 2048
  br i1 %exitcond.not.i8, label %_Z9cleandataPvm.exit9, label %.preheader.i6, !llvm.loop !18

_Z9cleandataPvm.exit9:                            ; preds = %.preheader.i6
  %60 = icmp eq i32 %55, 0
  call void @llvm.lifetime.end.p0(i64 2048, ptr nonnull %4) #15
  call void @llvm.lifetime.end.p0(i64 2048, ptr nonnull %3) #15
  ret i1 %60
}